target datalayout = "e-m:e-p270:32:32-p271:32:32-p272:64:64-i64:64-i128:128-f80:128-n8:16:32:64-S128"
target triple = "x86_64-pc-linux-gnu"

@hf_gsm_a_rr_lowest_arfcn = internal global i32 0, align 4
@hf_gsm_a_rr_inc_skip_arfcn = internal global i32 0, align 4

; Function Attrs: null_pointer_is_valid sspstrong uwtable
define internal zeroext i16 @de_rr_freq_ch_seq(ptr noundef %0, ptr noundef %1, ptr noundef %2, i32 noundef %3, i32 noundef %4, ptr noundef %5, i32 noundef %6) #1 {
  %8 = alloca ptr, align 8
  %9 = alloca ptr, align 8
  %10 = alloca ptr, align 8
  %11 = alloca i32, align 4
  %12 = alloca i32, align 4
  %13 = alloca ptr, align 8
  %14 = alloca i32, align 4
  %15 = alloca i32, align 4
  %16 = alloca i32, align 4
  %17 = alloca i32, align 4
  store ptr %0, ptr %8, align 8
  store ptr %1, ptr %9, align 8
  store ptr %2, ptr %10, align 8
  store i32 %3, ptr %11, align 4
  store i32 %4, ptr %12, align 4
  store ptr %5, ptr %13, align 8
  store i32 %6, ptr %14, align 4
  call void @llvm.lifetime.start.p0(i64 4, ptr %15) #11
  call void @llvm.lifetime.start.p0(i64 4, ptr %16) #11
  call void @llvm.lifetime.start.p0(i64 4, ptr %17) #11
  %18 = load i32, ptr %11, align 4
  store i32 %18, ptr %15, align 4
  %19 = load ptr, ptr %9, align 8
  %20 = load i32, ptr @hf_gsm_a_rr_lowest_arfcn, align 4
  %21 = load ptr, ptr %8, align 8
  %22 = load i32, ptr %15, align 4
  %23 = call ptr @proto_tree_add_item(ptr noundef %19, i32 noundef %20, ptr noundef %21, i32 noundef %22, i32 noundef 1, i32 noundef 0)
  %24 = load i32, ptr %15, align 4
  %25 = add i32 %24, 1
  store i32 %25, ptr %15, align 4
  %26 = load i32, ptr %15, align 4
  %27 = shl i32 %26, 3
  store i32 %27, ptr %16, align 4
  store i32 0, ptr %17, align 4
  br label %28

28:                                               ; preds = %39, %7
  %29 = load i32, ptr %17, align 4
  %30 = icmp slt i32 %29, 16
  br i1 %30, label %31, label %42

31:                                               ; preds = %28
  %32 = load ptr, ptr %9, align 8
  %33 = load i32, ptr @hf_gsm_a_rr_inc_skip_arfcn, align 4
  %34 = load ptr, ptr %8, align 8
  %35 = load i32, ptr %16, align 4
  %36 = call ptr @proto_tree_add_bits_item(ptr noundef %32, i32 noundef %33, ptr noundef %34, i32 noundef %35, i32 noundef 4, i32 noundef 0)
  %37 = load i32, ptr %16, align 4
  %38 = add i32 %37, 4
  store i32 %38, ptr %16, align 4
  br label %39

39:                                               ; preds = %31
  %40 = load i32, ptr %17, align 4
  %41 = add i32 %40, 1
  store i32 %41, ptr %17, align 4
  br label %28, !llvm.loop !31

42:                                               ; preds = %28
  %43 = load i32, ptr %15, align 4
  %44 = add i32 %43, 8
  store i32 %44, ptr %15, align 4
  %45 = load i32, ptr %15, align 4
  %46 = load i32, ptr %11, align 4
  %47 = sub i32 %45, %46
  %48 = trunc i32 %47 to i16
  call void @llvm.lifetime.end.p0(i64 4, ptr %17) #11
  call void @llvm.lifetime.end.p0(i64 4, ptr %16) #11
  call void @llvm.lifetime.end.p0(i64 4, ptr %15) #11
  ret i16 %48
}