; Function Attrs: null_pointer_is_valid sspstrong uwtable
define internal noundef zeroext i16 @de_rr_freq_ch_seq(ptr noundef %0, ptr noundef %1, ptr readnone captures(none) %2, i32 noundef %3, i32 %4, ptr readnone captures(none) %5, i32 %6) #3 {
  %8 = load i32, ptr @hf_gsm_a_rr_lowest_arfcn, align 4
  %9 = tail call ptr @proto_tree_add_item(ptr noundef %1, i32 noundef %8, ptr noundef %0, i32 noundef %3, i32 noundef 1, i32 noundef 0)
  %10 = shl i32 %3, 3
  %11 = add i32 %10, 8
  br label %12

12:                                               ; preds = %7, %12
  %.016 = phi i32 [ 0, %7 ], [ %16, %12 ]
  %.01415 = phi i32 [ %11, %7 ], [ %15, %12 ]
  %13 = load i32, ptr @hf_gsm_a_rr_inc_skip_arfcn, align 4
  %14 = tail call ptr @proto_tree_add_bits_item(ptr noundef %1, i32 noundef %13, ptr noundef %0, i32 noundef %.01415, i32 noundef 4, i32 noundef 0)
  %15 = add i32 %.01415, 4
  %16 = add nuw nsw i32 %.016, 1
  %exitcond.not = icmp eq i32 %16, 16
  br i1 %exitcond.not, label %17, label %12, !llvm.loop !30

17:                                               ; preds = %12
  ret i16 9
}